target datalayout = "e-m:e-p270:32:32-p271:32:32-p272:64:64-i64:64-i128:128-f80:128-n8:16:32:64-S128"
target triple = "x86_64-pc-linux-gnu"

%struct.HeapTupleData = type { i32, %struct.ItemPointerData, i32, ptr }
%struct.ItemPointerData = type { %struct.BlockIdData, i16 }
%struct.BlockIdData = type { i16, i16 }
%struct.HeapTupleHeaderData = type { %union.anon, %struct.ItemPointerData, i16, i16, i8, [0 x i8] }
%union.anon = type { %struct.HeapTupleFields }
%struct.HeapTupleFields = type { i32, i32, %union.anon.0 }
%union.anon.0 = type { i32 }
%struct.FormData_pg_operator = type { i32, %struct.nameData, i32, i32, i8, i8, i8, i32, i32, i32, i32, i32, i32, i32, i32 }
%struct.nameData = type { [64 x i8] }
%struct.TypeCacheEntry = type { i32, i32, i16, i8, i8, i8, i8, i32, i32, i32, i32, i32, i32, i32, i32, i32, i32, i32, i32, i32, i32, %struct.FmgrInfo, %struct.FmgrInfo, %struct.FmgrInfo, %struct.FmgrInfo, ptr, i64, ptr, i32, i32, %struct.FmgrInfo, %struct.FmgrInfo, %struct.FmgrInfo, ptr, i32, i32, ptr, i32, ptr, ptr }
%struct.FmgrInfo = type { ptr, i32, i16, i8, i8, i8, ptr, ptr, ptr }

; Function Attrs: inlinehint nounwind uwtable
define internal ptr @GETSTRUCT(ptr noundef %0) #2 {
  %2 = alloca ptr, align 8
  store ptr %0, ptr %2, align 8
  %3 = load ptr, ptr %2, align 8
  %4 = getelementptr inbounds nuw %struct.HeapTupleData, ptr %3, i32 0, i32 3
  %5 = load ptr, ptr %4, align 8
  %6 = load ptr, ptr %2, align 8
  %7 = getelementptr inbounds nuw %struct.HeapTupleData, ptr %6, i32 0, i32 3
  %8 = load ptr, ptr %7, align 8
  %9 = getelementptr inbounds nuw %struct.HeapTupleHeaderData, ptr %8, i32 0, i32 4
  %10 = load i8, ptr %9, align 2
  %11 = zext i8 %10 to i32
  %12 = sext i32 %11 to i64
  %13 = getelementptr inbounds i8, ptr %5, i64 %12
  ret ptr %13
}

; Function Attrs: inlinehint nounwind uwtable
define internal i64 @ObjectIdGetDatum(i32 noundef %0) #2 {
  %2 = alloca i32, align 4
  store i32 %0, ptr %2, align 4
  %3 = load i32, ptr %2, align 4
  %4 = zext i32 %3 to i64
  ret i64 %4
}

; Function Attrs: nounwind uwtable
define dso_local zeroext i1 @op_hashjoinable(i32 noundef %0, i32 noundef %1) #0 {
  %3 = alloca i32, align 4
  %4 = alloca i32, align 4
  %5 = alloca i8, align 1
  %6 = alloca ptr, align 8
  %7 = alloca ptr, align 8
  %8 = alloca ptr, align 8
  store i32 %0, ptr %3, align 4
  store i32 %1, ptr %4, align 4
  call void @llvm.lifetime.start.p0(i64 1, ptr %5) #7
  store i8 0, ptr %5, align 1
  call void @llvm.lifetime.start.p0(i64 8, ptr %6) #7
  call void @llvm.lifetime.start.p0(i64 8, ptr %7) #7
  %9 = load i32, ptr %3, align 4
  %10 = icmp eq i32 %9, 1070
  br i1 %10, label %11, label %20

11:                                               ; preds = %2
  %12 = load i32, ptr %4, align 4
  %13 = call ptr @lookup_type_cache(i32 noundef %12, i32 noundef 16)
  store ptr %13, ptr %7, align 8
  %14 = load ptr, ptr %7, align 8
  %15 = getelementptr inbounds nuw %struct.TypeCacheEntry, ptr %14, i32 0, i32 19
  %16 = load i32, ptr %15, align 8
  %17 = icmp eq i32 %16, 626
  br i1 %17, label %18, label %19

18:                                               ; preds = %11
  store i8 1, ptr %5, align 1
  br label %19

19:                                               ; preds = %18, %11
  br label %49

20:                                               ; preds = %2
  %21 = load i32, ptr %3, align 4
  %22 = icmp eq i32 %21, 2988
  br i1 %22, label %23, label %32

23:                                               ; preds = %20
  %24 = load i32, ptr %4, align 4
  %25 = call ptr @lookup_type_cache(i32 noundef %24, i32 noundef 16)
  store ptr %25, ptr %7, align 8
  %26 = load ptr, ptr %7, align 8
  %27 = getelementptr inbounds nuw %struct.TypeCacheEntry, ptr %26, i32 0, i32 19
  %28 = load i32, ptr %27, align 8
  %29 = icmp eq i32 %28, 6192
  br i1 %29, label %30, label %31

30:                                               ; preds = %23
  store i8 1, ptr %5, align 1
  br label %31

31:                                               ; preds = %30, %23
  br label %48

32:                                               ; preds = %20
  %33 = load i32, ptr %3, align 4
  %34 = call i64 @ObjectIdGetDatum(i32 noundef %33)
  %35 = call ptr @SearchSysCache1(i32 noundef 40, i64 noundef %34)
  store ptr %35, ptr %6, align 8
  %36 = load ptr, ptr %6, align 8
  %37 = icmp ne ptr %36, null
  br i1 %37, label %38, label %47

38:                                               ; preds = %32
  call void @llvm.lifetime.start.p0(i64 8, ptr %8) #7
  %39 = load ptr, ptr %6, align 8
  %40 = call ptr @GETSTRUCT(ptr noundef %39)
  store ptr %40, ptr %8, align 8
  %41 = load ptr, ptr %8, align 8
  %42 = getelementptr inbounds nuw %struct.FormData_pg_operator, ptr %41, i32 0, i32 6
  %43 = load i8, ptr %42, align 2, !range !4, !noundef !5
  %44 = trunc i8 %43 to i1
  %45 = zext i1 %44 to i8
  store i8 %45, ptr %5, align 1
  %46 = load ptr, ptr %6, align 8
  call void @ReleaseSysCache(ptr noundef %46)
  call void @llvm.lifetime.end.p0(i64 8, ptr %8) #7
  br label %47

47:                                               ; preds = %38, %32
  br label %48

48:                                               ; preds = %47, %31
  br label %49

49:                                               ; preds = %48, %19
  %50 = load i8, ptr %5, align 1, !range !4, !noundef !5
  %51 = trunc i8 %50 to i1
  call void @llvm.lifetime.end.p0(i64 8, ptr %7) #7
  call void @llvm.lifetime.end.p0(i64 8, ptr %6) #7
  call void @llvm.lifetime.end.p0(i64 1, ptr %5) #7
  ret i1 %51
}